(dp0
Vengine
p1
S'pdflatex'
p2
sVpackages
p3
c__builtin__
set
p4
((lp5
Vxcolor
p6
aVfancyhdr
p7
aVetoolbox
p8
aVfloat
p9
aVmulticol
p10
aVnicefrac
p11
aVbabel
p12
aVsetspace
p13
aVbooktabs
p14
aVfrcursive
p15
aVmicrotype
p16
aVgraphicx
p17
aVinputenc
p18
aVbreakcites
p19
aVnatbib
p20
aVlastpage
p21
aVbibunits
p22
aVspacecites
p23
aVhyperref
p24
aVgeometry
p25
aVplaceins
p26
aVSIunits
p27
atp28
Rp29
sVfiles_with_guttermarks
p30
g4
((lp31
V/Users/pierre-louisstenger/Desktop/Raport compile\u0301/Rapport.bbl (./babelbst.tex
p32
aS'/Users/pierre-louisstenger/Desktop/Raport compile\xcc\x81/Rapport.Rnw'
p33
aS'Rapport.Rnw'
p34
aV/Users/pierre-louisstenger/Desktop/Raport compile\u0301/bu2.bbl (./babelbst.tex
p35
aV/Users/pierre-louisstenger/Desktop/Raport compile\u0301/./Rapport.Rnw
p36
atp37
Rp38
sVsynctex
p39
I01
s.