(dp0
Vengine
p1
S'pdflatex'
p2
sVpackages
p3
c__builtin__
set
p4
((lp5
Vhyperref
p6
aVmulticol
p7
aVnicefrac
p8
aVgeometry
p9
aVbabel
p10
aVSIunits
p11
aVbooktabs
p12
aVsetspace
p13
aVspacecites
p14
aVlastpage
p15
aVfloat
p16
aVxcolor
p17
aVfancyhdr
p18
aVmicrotype
p19
aVgraphicx
p20
aVfrcursive
p21
aVetoolbox
p22
aVplaceins
p23
aVinputenc
p24
aVbreakcites
p25
aVnatbib
p26
atp27
Rp28
sVfiles_with_guttermarks
p29
g4
((lp30
V/Users/pierre-louisstenger/Desktop/Raport compile\u0301/Rapport.bbl (./babelbst.tex
p31
aS'/Users/pierre-louisstenger/Desktop/Raport compile\xcc\x81/Rapport.Rnw'
p32
aS'Rapport.Rnw'
p33
aV/Users/pierre-louisstenger/Desktop/Raport compile\u0301/./Rapport.Rnw
p34
atp35
Rp36
sVsynctex
p37
I01
s.