(dp0
Vengine
p1
S'pdflatex'
p2
sVpackages
p3
c__builtin__
set
p4
((lp5
Vxcolor
p6
aVfancyhdr
p7
aVetoolbox
p8
aVfloat
p9
aVmulticol
p10
aVnicefrac
p11
aVbabel
p12
aVsetspace
p13
aVbooktabs
p14
aVfrcursive
p15
aVmicrotype
p16
aVgraphicx
p17
aVinputenc
p18
aVbreakcites
p19
aVnatbib
p20
aVlastpage
p21
aVbibunits
p22
aVchangepage
p23
aVspacecites
p24
aVhyperref
p25
aVgeometry
p26
aVchngcntr
p27
aVplaceins
p28
aVSIunits
p29
atp30
Rp31
sVfiles_with_guttermarks
p32
g4
((lp33
V/Users/bsimonbo/Dropbox/In Progress/_Stage Pierre-Louis Stenger/Raport-compile-/bu2.bbl (./babelbst.tex
p34
aS'Rapport.Rnw'
p35
aV/Users/pierre-louisstenger/Desktop/Raport compile\u0301/bu1.bbl (./babelbst.tex
p36
aV/Users/bsimonbo/Dropbox/In Progress/_Stage Pierre-Louis Stenger/Raport-compile-/./Rapport.tex
p37
aV/Users/pierre-louisstenger/Desktop/Raport compile\u0301/bu2.bbl (./babelbst.tex
p38
aV/Users/pierre-louisstenger/Desktop/Raport compile\u0301/./Rapport.Rnw
p39
aV/Users/bsimonbo/Dropbox/In Progress/_Stage Pierre-Louis Stenger/Raport-compile-/babelbst.tex
p40
aV/Users/bsimonbo/Dropbox/In Progress/_Stage Pierre-Louis Stenger/Raport-compile-/Rapport.tex
p41
aS'/Users/pierre-louisstenger/Desktop/Raport compile\xcc\x81/Rapport.Rnw'
p42
atp43
Rp44
sVsynctex
p45
I01
s.