(dp0
Vengine
p1
Vxelatex
p2
sVpackages
p3
c__builtin__
set
p4
((lp5
Vxcolor
p6
aVfancyhdr
p7
aVetoolbox
p8
aVfloat
p9
aVframed
p10
aValltt
p11
aVmulticol
p12
aVnicefrac
p13
aVbabel
p14
aVsetspace
p15
aVbooktabs
p16
aVupquote
p17
aVfrcursive
p18
aVmicrotype
p19
aVgraphicx
p20
aVinputenc
p21
aVbreakcites
p22
aVnatbib
p23
aVlastpage
p24
aVbibunits
p25
aVchangepage
p26
aVspacecites
p27
aVhyperref
p28
aVgeometry
p29
aVchngcntr
p30
aVplaceins
p31
aVSIunits
p32
atp33
Rp34
sVfiles_with_guttermarks
p35
g4
((lp36
V/Users/bsimonbo/Dropbox/In Progress/_Stage Pierre-Louis Stenger/Raport-compile-/babelbst.tex
p37
aV/Users/bsimonbo/Dropbox/In Progress/_Stage Pierre-Louis Stenger/Raport-compile-/Rapport.tex
p38
aV/Users/bsimonbo/Dropbox/In Progress/_Stage Pierre-Louis Stenger/Raport-compile-/./Rapport.tex
p39
aV/Users/bsimonbo/Dropbox/In Progress/_Stage Pierre-Louis Stenger/Raport-compile-/bu2.bbl (./babelbst.tex
p40
aS'Rapport.Rnw'
p41
atp42
Rp43
sVsynctex
p44
I01
s.