(dp0
Vengine
p1
S'pdflatex'
p2
sVpackages
p3
c__builtin__
set
p4
((lp5
Vxcolor
p6
aVfancyhdr
p7
aVetoolbox
p8
aVfloat
p9
aVmulticol
p10
aVnicefrac
p11
aVbabel
p12
aVSIunits
p13
aVbooktabs
p14
aVupquote
p15
aVfrcursive
p16
aVmicrotype
p17
aVgraphicx
p18
aVinputenc
p19
aVbreakcites
p20
aVnatbib
p21
aVlastpage
p22
aVspacecites
p23
aVhyperref
p24
aVgeometry
p25
aVplaceins
p26
aVsetspace
p27
atp28
Rp29
sVfiles_with_guttermarks
p30
g4
((lp31
S'/Users/pierre-louisstenger/Desktop/Nouvel essai compilation/resultats.Rnw'
p32
aV/Users/pierre-louisstenger/Desktop/Nouvel essai compilation/./resultats.Rnw
p33
aV/Users/pierre-louisstenger/Desktop/Nouvel essai compilation/resultats.bbl (./babelbst.tex
p34
aS'resultats.Rnw'
p35
atp36
Rp37
sVsynctex
p38
I01
s.